Certificate:
    Data:
        Version: 3 (0x2)
        Serial Number:
            50:53:70:06:d8:1b:f8:66:10:91:b2:bb:23:73:1f:fb:2c:62:99:0d
        Signature Algorithm: sha256WithRSAEncryption
        Issuer: C=ES, O=Criptonika, CN=Root CA
        Validity
            Not Before: Sep 20 11:51:14 2024 GMT
            Not After : Sep 18 11:51:14 2034 GMT
        Subject: C=ES, O=Criptonika, CN=serverTLS
        Subject Public Key Info:
            Public Key Algorithm: rsaEncryption
                Public-Key: (2048 bit)
                Modulus:
                    00:a7:5e:6a:7e:32:54:cc:75:0c:55:a8:eb:69:8a:
                    d2:d2:8e:24:a1:c4:dc:a8:33:c6:a0:4c:e4:83:10:
                    a9:0f:d0:f3:af:e7:c5:8f:fb:35:63:82:93:6f:13:
                    13:6b:87:c0:b7:d9:86:5b:5e:81:5c:97:95:81:61:
                    dc:29:ec:34:e8:c9:97:71:a3:11:2e:41:02:34:bb:
                    a6:06:71:3b:81:9c:a4:90:05:91:5b:81:0e:a7:af:
                    db:52:d9:be:6d:77:a5:64:6e:ce:2f:82:42:96:cc:
                    4b:07:26:27:66:cb:d1:d7:31:e4:e0:c3:7e:7f:bd:
                    ee:d4:24:8e:5a:ba:52:09:c7:03:b0:b5:f4:ce:7b:
                    94:27:e2:c4:bc:56:ef:ad:d8:b6:9c:c9:b0:ea:a4:
                    8b:af:5b:8d:3f:1b:c8:5d:08:37:e3:f6:b0:d0:38:
                    ec:d3:3e:f2:32:49:a9:c9:a4:68:e7:f6:64:e1:7b:
                    4d:55:ee:d3:43:a6:2e:5d:8c:65:bd:75:82:b9:51:
                    85:1a:2c:78:80:94:be:d3:fe:92:c3:a3:95:ea:38:
                    95:41:da:d4:96:d9:a5:ec:21:90:dc:d4:84:22:95:
                    fb:1a:cb:ce:4f:c4:51:0f:fc:dc:a3:3d:12:c1:45:
                    c8:df:72:5a:72:0a:fd:db:ce:56:20:99:18:9d:c5:
                    0f:b7
                Exponent: 65537 (0x10001)
        X509v3 extensions:
            Authority Information Access: 
                CA Issuers - URI:http://tu-url-ca/tu-ca.crt
                OCSP - URI:http://ocsp.tu-url-ca:9080
            X509v3 Authority Key Identifier: 
                AC:DC:9E:1F:6F:EA:37:0C:7A:47:63:B0:8E:B5:54:48:AB:A8:23:E1
            X509v3 Basic Constraints: critical
                CA:FALSE
            X509v3 Extended Key Usage: 
                TLS Web Client Authentication, TLS Web Server Authentication
            X509v3 Key Usage: critical
                Digital Signature, Key Encipherment
            X509v3 Subject Key Identifier: 
                D8:7F:B0:5C:9B:16:E7:13:A6:13:BE:B2:DF:6B:C5:54:60:F2:20:D6
    Signature Algorithm: sha256WithRSAEncryption
    Signature Value:
        64:e6:de:28:8f:a5:a9:d4:74:f6:ac:74:de:8b:cb:a9:83:4a:
        9c:ef:88:84:59:07:76:ce:07:d4:0c:10:db:41:8b:87:a7:81:
        3a:06:70:d9:90:72:b8:33:92:e1:f2:04:b9:be:95:fd:4b:68:
        66:21:03:48:e4:09:25:10:49:47:97:73:c9:00:40:00:5d:a8:
        01:5c:2d:1a:1e:3a:ef:c2:08:3e:0c:e2:48:3c:d3:d0:08:e4:
        2a:00:be:0d:63:1f:68:83:1f:02:8e:63:15:b7:bf:3f:ff:d5:
        64:83:73:fb:c6:d7:ff:49:d8:3d:60:c6:aa:d0:6e:41:83:8e:
        12:71:c5:60:10:ba:3b:e1:cf:27:c8:f8:f1:d8:7b:0c:33:4c:
        9c:cd:3d:41:ed:66:89:c2:fd:a3:62:3f:ac:2f:35:df:44:87:
        48:c4:a4:50:6b:87:b4:0d:ec:08:6e:7f:dc:cd:95:33:b8:ce:
        ac:b9:db:8c:57:b0:c8:d8:aa:3b:d0:f1:93:47:1b:42:c8:5c:
        d7:9b:c3:89:ed:a1:a8:bb:42:72:eb:0a:1d:64:90:18:c4:57:
        dd:83:af:09:0d:0d:18:32:dc:53:1d:d0:15:dc:a9:83:8e:af:
        05:84:32:02:9a:51:a9:e9:8b:b9:2f:66:22:d0:7a:25:da:6b:
        43:e9:5a:7c:90:99:64:99:86:fa:de:e8:43:98:e0:8d:0d:e1:
        d5:e1:1e:18:ec:1e:d1:fc:1a:8c:93:6a:82:41:5a:e3:f2:5e:
        d1:e6:2e:9c:6e:41:ec:9c:5b:bf:20:5f:34:36:6a:d2:85:5e:
        d7:92:fa:9e:4a:bd:65:c8:9f:e1:fb:d7:d6:fc:cf:97:65:4c:
        7a:e9:fb:5b:f5:ba:78:f5:c3:50:ef:cf:8f:de:61:b7:43:80:
        71:42:3f:d3:11:6e:0e:a2:ae:b0:6c:86:52:c8:94:27:25:18:
        58:b0:43:42:81:ff:d6:2d:55:37:8e:97:88:d0:1e:a9:da:87:
        e7:eb:39:a8:54:d5:00:92:27:59:e0:ca:12:61:39:e5:3b:91:
        6b:99:e2:8c:e1:c3:33:bc:5f:17:22:30:e7:c1:24:bc:0f:12:
        0f:f7:19:6e:29:d7:6f:f5:5e:d0:22:84:67:65:44:bc:19:9e:
        8b:7c:04:80:6e:a6:82:04:13:21:7a:18:8a:24:50:b7:8e:e3:
        a3:95:e2:7e:61:89:ad:4c:35:11:74:5d:2f:5f:8f:d5:1a:3b:
        98:17:4c:c2:e7:22:d9:1a:97:5c:5c:60:c2:a9:d8:63:0e:60:
        7c:2a:f2:4f:c9:2d:65:94:63:4c:01:7f:78:47:ba:35:a8:a6:
        bc:99:52:32:63:a8:a2:cc
-----BEGIN CERTIFICATE-----
MIIE2TCCAsGgAwIBAgIUUFNwBtgb+GYQkbK7I3Mf+yximQ0wDQYJKoZIhvcNAQEL
BQAwNDELMAkGA1UEBhMCRVMxEzARBgNVBAoMCkNyaXB0b25pa2ExEDAOBgNVBAMM
B1Jvb3QgQ0EwHhcNMjQwOTIwMTE1MTE0WhcNMzQwOTE4MTE1MTE0WjA2MQswCQYD
VQQGEwJFUzETMBEGA1UECgwKQ3JpcHRvbmlrYTESMBAGA1UEAwwJc2VydmVyVExT
MIIBIjANBgkqhkiG9w0BAQEFAAOCAQ8AMIIBCgKCAQEAp15qfjJUzHUMVajraYrS
0o4kocTcqDPGoEzkgxCpD9Dzr+fFj/s1Y4KTbxMTa4fAt9mGW16BXJeVgWHcKew0
6MmXcaMRLkECNLumBnE7gZykkAWRW4EOp6/bUtm+bXelZG7OL4JClsxLByYnZsvR
1zHk4MN+f73u1CSOWrpSCccDsLX0znuUJ+LEvFbvrdi2nMmw6qSLr1uNPxvIXQg3
4/aw0Djs0z7yMkmpyaRo5/Zk4XtNVe7TQ6YuXYxlvXWCuVGFGix4gJS+0/6Sw6OV
6jiVQdrUltml7CGQ3NSEIpX7GsvOT8RRD/zcoz0SwUXI33Jacgr9285WIJkYncUP
twIDAQABo4HgMIHdMF4GCCsGAQUFBwEBBFIwUDAmBggrBgEFBQcwAoYaaHR0cDov
L3R1LXVybC1jYS90dS1jYS5jcnQwJgYIKwYBBQUHMAGGGmh0dHA6Ly9vY3NwLnR1
LXVybC1jYTo5MDgwMB8GA1UdIwQYMBaAFKzcnh9v6jcMekdjsI61VEirqCPhMAwG
A1UdEwEB/wQCMAAwHQYDVR0lBBYwFAYIKwYBBQUHAwIGCCsGAQUFBwMBMA4GA1Ud
DwEB/wQEAwIFoDAdBgNVHQ4EFgQU2H+wXJsW5xOmE76y32vFVGDyINYwDQYJKoZI
hvcNAQELBQADggIBAGTm3iiPpanUdPasdN6Ly6mDSpzviIRZB3bOB9QMENtBi4en
gToGcNmQcrgzkuHyBLm+lf1LaGYhA0jkCSUQSUeXc8kAQABdqAFcLRoeOu/CCD4M
4kg809AI5CoAvg1jH2iDHwKOYxW3vz//1WSDc/vG1/9J2D1gxqrQbkGDjhJxxWAQ
ujvhzyfI+PHYewwzTJzNPUHtZonC/aNiP6wvNd9Eh0jEpFBrh7QN7Ahuf9zNlTO4
zqy524xXsMjYqjvQ8ZNHG0LIXNebw4ntoai7QnLrCh1kkBjEV92DrwkNDRgy3FMd
0BXcqYOOrwWEMgKaUanpi7kvZiLQeiXaa0PpWnyQmWSZhvre6EOY4I0N4dXhHhjs
HtH8GoyTaoJBWuPyXtHmLpxuQeycW78gXzQ2atKFXteS+p5KvWXIn+H719b8z5dl
THrp+1v1unj1w1Dvz4/eYbdDgHFCP9MRbg6irrBshlLIlCclGFiwQ0KB/9YtVTeO
l4jQHqnah+frOahU1QCSJ1ngyhJhOeU7kWuZ4ozhwzO8XxciMOfBJLwPEg/3GW4p
12/1XtAihGdlRLwZnot8BIBupoIEEyF6GIokULeO46OV4n5hia1MNRF0XS9fj9Ua
O5gXTMLnItkal1xcYMKp2GMOYHwq8k/JLWWUY0wBf3hHujWopryZUjJjqKLM
-----END CERTIFICATE-----
