Certificate:
    Data:
        Version: 3 (0x2)
        Serial Number:
            0b:69:34:d8:09:ee:4e:8a:dd:7e:e6:de:be:06:15:9d:28:4b:b2:fc
        Signature Algorithm: sha256WithRSAEncryption
        Issuer: C=ES, O=Criptonika, CN=Sub CA Server
        Validity
            Not Before: Nov  8 09:15:38 2024 GMT
            Not After : Nov  6 09:15:38 2034 GMT
        Subject: C=ES, O=Criptonika, CN=serverTLS
        Subject Public Key Info:
            Public Key Algorithm: rsaEncryption
                Public-Key: (2048 bit)
                Modulus:
                    00:a7:5e:6a:7e:32:54:cc:75:0c:55:a8:eb:69:8a:
                    d2:d2:8e:24:a1:c4:dc:a8:33:c6:a0:4c:e4:83:10:
                    a9:0f:d0:f3:af:e7:c5:8f:fb:35:63:82:93:6f:13:
                    13:6b:87:c0:b7:d9:86:5b:5e:81:5c:97:95:81:61:
                    dc:29:ec:34:e8:c9:97:71:a3:11:2e:41:02:34:bb:
                    a6:06:71:3b:81:9c:a4:90:05:91:5b:81:0e:a7:af:
                    db:52:d9:be:6d:77:a5:64:6e:ce:2f:82:42:96:cc:
                    4b:07:26:27:66:cb:d1:d7:31:e4:e0:c3:7e:7f:bd:
                    ee:d4:24:8e:5a:ba:52:09:c7:03:b0:b5:f4:ce:7b:
                    94:27:e2:c4:bc:56:ef:ad:d8:b6:9c:c9:b0:ea:a4:
                    8b:af:5b:8d:3f:1b:c8:5d:08:37:e3:f6:b0:d0:38:
                    ec:d3:3e:f2:32:49:a9:c9:a4:68:e7:f6:64:e1:7b:
                    4d:55:ee:d3:43:a6:2e:5d:8c:65:bd:75:82:b9:51:
                    85:1a:2c:78:80:94:be:d3:fe:92:c3:a3:95:ea:38:
                    95:41:da:d4:96:d9:a5:ec:21:90:dc:d4:84:22:95:
                    fb:1a:cb:ce:4f:c4:51:0f:fc:dc:a3:3d:12:c1:45:
                    c8:df:72:5a:72:0a:fd:db:ce:56:20:99:18:9d:c5:
                    0f:b7
                Exponent: 65537 (0x10001)
        X509v3 extensions:
            Authority Information Access: 
                CA Issuers - URI:http://tu-url-ca/tu-ca.crt
                OCSP - URI:http://ocsp.tu-url-ca:9080
            X509v3 Authority Key Identifier: 
                07:D5:ED:7B:BC:12:7E:F9:89:FA:FF:09:56:4C:A8:16:F4:4A:E9:36
            X509v3 Basic Constraints: critical
                CA:FALSE
            X509v3 Extended Key Usage: 
                TLS Web Client Authentication, TLS Web Server Authentication
            X509v3 Key Usage: critical
                Digital Signature, Key Encipherment
            X509v3 Subject Key Identifier: 
                D8:7F:B0:5C:9B:16:E7:13:A6:13:BE:B2:DF:6B:C5:54:60:F2:20:D6
    Signature Algorithm: sha256WithRSAEncryption
    Signature Value:
        26:0e:a8:ec:77:ea:48:93:1c:a8:a6:c7:47:23:a3:0f:87:20:
        de:2b:19:b3:ae:92:2c:8b:23:36:0e:c1:43:7b:92:32:41:ec:
        93:a1:18:b3:90:10:50:bd:27:dd:2e:d9:68:0d:c5:58:76:82:
        38:39:c0:50:a9:c6:73:03:ff:77:31:c8:61:ac:24:79:a5:40:
        6c:47:c9:df:fd:88:9e:c4:4b:9a:55:cb:1d:c8:06:76:4a:9d:
        c8:b9:e2:64:58:56:19:3f:9f:16:a6:02:42:14:8c:28:7e:6a:
        5a:bb:b1:d0:de:ad:98:74:56:f2:51:40:f6:05:5d:89:1f:c3:
        fd:c8:c8:5b:a0:0f:70:3f:b0:4d:4b:b3:ec:f4:82:c6:9d:ae:
        7d:51:81:e8:0e:fb:78:a6:f5:dc:6c:06:5b:42:9c:cd:94:41:
        4e:d2:5a:86:1f:ba:31:65:5d:52:c8:a3:63:5d:8b:36:33:b5:
        31:e6:b3:a7:b1:a8:62:8a:d8:ca:a0:e5:11:d4:66:39:92:f8:
        ba:3a:53:3c:db:9f:42:be:df:b8:e1:a8:a3:74:68:16:40:af:
        9d:ad:3d:8c:57:6a:64:39:1d:ea:bd:87:bc:18:00:2e:00:8d:
        2b:ad:52:ad:4d:18:01:a5:f2:80:cc:a3:2f:e9:92:4f:c1:f9:
        0f:f0:4e:22:9a:7b:1f:68:ac:13:be:2b:b2:a1:44:8e:d2:f8:
        8c:a3:bf:ec:5d:50:e5:51:8e:32:c8:93:c8:ae:d9:64:94:bf:
        c8:04:39:3b:71:02:e8:11:54:6c:12:cf:76:aa:95:0e:fc:81:
        83:b0:c1:c0:4d:2b:79:58:5b:23:85:a4:01:5a:b6:7b:3a:27:
        88:ec:7c:e5:2c:46:41:54:35:c5:31:95:67:31:e6:54:c8:9e:
        c4:93:18:29:6a:c6:a6:1b:ea:86:6a:ba:be:fd:6b:ff:57:1b:
        a5:4e:40:4d:47:c4:12:38:46:80:e2:30:b7:bf:68:90:9e:8f:
        1c:4a:9a:d5:5a:b6:22:62:2e:f8:e2:12:b3:7a:92:94:14:90:
        aa:79:9c:2d:c9:5f:02:ea:63:64:5e:f3:b8:f6:88:bb:78:ae:
        32:92:f9:d7:89:5f:d7:e6:52:60:63:d5:ff:e6:4f:fb:3e:45:
        02:0b:76:51:4a:9c:8a:27:c4:b0:a7:96:3e:3e:7a:58:44:4b:
        42:d7:d5:96:6a:e9:4f:8d:cd:e7:d5:ef:50:90:24:48:38:ec:
        4d:b2:da:ae:1f:1b:f1:d4:bf:dd:ff:1d:6b:64:22:ef:ef:f6:
        70:01:6b:08:e6:74:d0:ef:d2:2b:75:21:71:1c:39:d0:59:96:
        d8:e8:09:4a:8d:77:c5:5c
-----BEGIN CERTIFICATE-----
MIIE3zCCAsegAwIBAgIUC2k02AnuTordfubevgYVnShLsvwwDQYJKoZIhvcNAQEL
BQAwOjELMAkGA1UEBhMCRVMxEzARBgNVBAoMCkNyaXB0b25pa2ExFjAUBgNVBAMM
DVN1YiBDQSBTZXJ2ZXIwHhcNMjQxMTA4MDkxNTM4WhcNMzQxMTA2MDkxNTM4WjA2
MQswCQYDVQQGEwJFUzETMBEGA1UECgwKQ3JpcHRvbmlrYTESMBAGA1UEAwwJc2Vy
dmVyVExTMIIBIjANBgkqhkiG9w0BAQEFAAOCAQ8AMIIBCgKCAQEAp15qfjJUzHUM
VajraYrS0o4kocTcqDPGoEzkgxCpD9Dzr+fFj/s1Y4KTbxMTa4fAt9mGW16BXJeV
gWHcKew06MmXcaMRLkECNLumBnE7gZykkAWRW4EOp6/bUtm+bXelZG7OL4JClsxL
ByYnZsvR1zHk4MN+f73u1CSOWrpSCccDsLX0znuUJ+LEvFbvrdi2nMmw6qSLr1uN
PxvIXQg34/aw0Djs0z7yMkmpyaRo5/Zk4XtNVe7TQ6YuXYxlvXWCuVGFGix4gJS+
0/6Sw6OV6jiVQdrUltml7CGQ3NSEIpX7GsvOT8RRD/zcoz0SwUXI33Jacgr9285W
IJkYncUPtwIDAQABo4HgMIHdMF4GCCsGAQUFBwEBBFIwUDAmBggrBgEFBQcwAoYa
aHR0cDovL3R1LXVybC1jYS90dS1jYS5jcnQwJgYIKwYBBQUHMAGGGmh0dHA6Ly9v
Y3NwLnR1LXVybC1jYTo5MDgwMB8GA1UdIwQYMBaAFAfV7Xu8En75ifr/CVZMqBb0
Suk2MAwGA1UdEwEB/wQCMAAwHQYDVR0lBBYwFAYIKwYBBQUHAwIGCCsGAQUFBwMB
MA4GA1UdDwEB/wQEAwIFoDAdBgNVHQ4EFgQU2H+wXJsW5xOmE76y32vFVGDyINYw
DQYJKoZIhvcNAQELBQADggIBACYOqOx36kiTHKimx0cjow+HIN4rGbOukiyLIzYO
wUN7kjJB7JOhGLOQEFC9J90u2WgNxVh2gjg5wFCpxnMD/3cxyGGsJHmlQGxHyd/9
iJ7ES5pVyx3IBnZKnci54mRYVhk/nxamAkIUjCh+alq7sdDerZh0VvJRQPYFXYkf
w/3IyFugD3A/sE1Ls+z0gsadrn1RgegO+3im9dxsBltCnM2UQU7SWoYfujFlXVLI
o2NdizYztTHms6exqGKK2Mqg5RHUZjmS+Lo6Uzzbn0K+37jhqKN0aBZAr52tPYxX
amQ5Heq9h7wYAC4AjSutUq1NGAGl8oDMoy/pkk/B+Q/wTiKaex9orBO+K7KhRI7S
+Iyjv+xdUOVRjjLIk8iu2WSUv8gEOTtxAugRVGwSz3aqlQ78gYOwwcBNK3lYWyOF
pAFatns6J4jsfOUsRkFUNcUxlWcx5lTInsSTGClqxqYb6oZqur79a/9XG6VOQE1H
xBI4RoDiMLe/aJCejxxKmtVatiJiLvjiErN6kpQUkKp5nC3JXwLqY2Re87j2iLt4
rjKS+deJX9fmUmBj1f/mT/s+RQILdlFKnIonxLCnlj4+elhES0LX1ZZq6U+NzefV
71CQJEg47E2y2q4fG/HUv93/HWtkIu/v9nABawjmdNDv0it1IXEcOdBZltjoCUqN
d8Vc
-----END CERTIFICATE-----
