Certificate:
    Data:
        Version: 3 (0x2)
        Serial Number:
            59:2e:ce:26:c4:9b:72:02:5a:90:ef:5c:4e:51:97:81:a8:dc:7a:68
        Signature Algorithm: sha256WithRSAEncryption
        Issuer: C=ES, O=Criptonika, CN=Sub CA Server
        Validity
            Not Before: Nov 13 21:46:21 2024 GMT
            Not After : Nov 11 21:46:21 2034 GMT
        Subject: C=ES, O=Criptonika, CN=serverTLS
        Subject Public Key Info:
            Public Key Algorithm: rsaEncryption
                Public-Key: (2048 bit)
                Modulus:
                    00:a7:5e:6a:7e:32:54:cc:75:0c:55:a8:eb:69:8a:
                    d2:d2:8e:24:a1:c4:dc:a8:33:c6:a0:4c:e4:83:10:
                    a9:0f:d0:f3:af:e7:c5:8f:fb:35:63:82:93:6f:13:
                    13:6b:87:c0:b7:d9:86:5b:5e:81:5c:97:95:81:61:
                    dc:29:ec:34:e8:c9:97:71:a3:11:2e:41:02:34:bb:
                    a6:06:71:3b:81:9c:a4:90:05:91:5b:81:0e:a7:af:
                    db:52:d9:be:6d:77:a5:64:6e:ce:2f:82:42:96:cc:
                    4b:07:26:27:66:cb:d1:d7:31:e4:e0:c3:7e:7f:bd:
                    ee:d4:24:8e:5a:ba:52:09:c7:03:b0:b5:f4:ce:7b:
                    94:27:e2:c4:bc:56:ef:ad:d8:b6:9c:c9:b0:ea:a4:
                    8b:af:5b:8d:3f:1b:c8:5d:08:37:e3:f6:b0:d0:38:
                    ec:d3:3e:f2:32:49:a9:c9:a4:68:e7:f6:64:e1:7b:
                    4d:55:ee:d3:43:a6:2e:5d:8c:65:bd:75:82:b9:51:
                    85:1a:2c:78:80:94:be:d3:fe:92:c3:a3:95:ea:38:
                    95:41:da:d4:96:d9:a5:ec:21:90:dc:d4:84:22:95:
                    fb:1a:cb:ce:4f:c4:51:0f:fc:dc:a3:3d:12:c1:45:
                    c8:df:72:5a:72:0a:fd:db:ce:56:20:99:18:9d:c5:
                    0f:b7
                Exponent: 65537 (0x10001)
        X509v3 extensions:
            Authority Information Access: 
                CA Issuers - URI:http://tu-url-ca/tu-ca.crt
                OCSP - URI:http://ocsp.tu-url-ca:9080
            X509v3 Authority Key Identifier: 
                07:D5:ED:7B:BC:12:7E:F9:89:FA:FF:09:56:4C:A8:16:F4:4A:E9:36
            X509v3 Basic Constraints: critical
                CA:FALSE
            X509v3 Extended Key Usage: 
                TLS Web Client Authentication, TLS Web Server Authentication
            X509v3 Key Usage: critical
                Digital Signature, Key Encipherment
            X509v3 Subject Key Identifier: 
                D8:7F:B0:5C:9B:16:E7:13:A6:13:BE:B2:DF:6B:C5:54:60:F2:20:D6
    Signature Algorithm: sha256WithRSAEncryption
    Signature Value:
        47:61:0f:f5:cd:80:89:08:54:14:fa:c8:1d:21:07:8d:a7:d8:
        95:73:89:44:10:a6:4b:03:17:0a:ee:7c:46:e1:e7:4c:0d:5c:
        ce:d2:3e:99:41:16:51:1f:07:f4:52:00:0c:63:a0:3f:68:30:
        7d:f1:27:ed:85:3a:9a:72:bc:4a:92:5d:2c:c9:98:15:ac:42:
        4d:ce:cd:8d:09:14:8d:89:66:0a:c4:83:41:f6:e7:59:16:d5:
        18:ef:39:8f:e9:e1:7f:9f:c3:c7:19:77:a4:27:29:e4:23:c5:
        4b:75:97:12:2b:a5:96:74:26:a5:2f:aa:50:84:50:27:76:e7:
        31:64:8b:42:ac:fc:a5:35:03:da:67:e5:ef:25:08:aa:5a:7b:
        23:f3:ab:88:95:e4:13:16:16:34:dc:1d:dd:b0:e9:17:19:a6:
        cd:56:d3:77:75:e1:e4:bc:95:5b:30:dc:df:58:b2:48:c8:d8:
        60:6d:98:4b:d7:c0:cf:5a:5a:fe:9d:04:f5:73:b6:6c:8b:c2:
        dd:8b:88:f5:18:1a:22:4b:a0:0e:8f:db:37:49:a3:fb:76:03:
        52:d6:08:85:1d:44:02:05:cc:ef:a0:af:ca:0d:67:ab:c2:49:
        39:44:9d:74:2d:89:61:22:08:14:14:b3:58:a1:b7:44:44:df:
        25:a9:18:a6:f4:9b:04:64:2a:b6:a8:77:f0:20:ce:36:f7:39:
        4f:ef:58:2e:d5:85:38:ea:d6:85:9f:e0:eb:10:36:70:c1:7f:
        de:6e:cd:19:94:6e:7a:13:80:97:93:7a:07:b0:d9:61:e5:1c:
        1e:db:42:6e:51:11:05:00:23:aa:db:c6:d3:29:76:db:06:d1:
        79:b1:8e:26:93:ac:d6:6a:76:0f:3e:a1:48:df:86:23:ac:98:
        de:1c:9a:24:53:b8:36:c2:46:fa:d4:bd:8b:69:f1:4f:ec:12:
        4c:a0:96:65:69:60:37:ce:83:29:83:cb:11:57:2c:e1:77:76:
        11:f0:a0:14:66:15:94:1a:46:6a:a0:0a:de:2d:6c:26:ee:78:
        ac:14:4f:e3:ab:f6:35:2f:f4:3c:dd:f9:98:29:50:d0:3f:c7:
        fd:0f:90:ab:65:b5:69:cf:e8:65:2c:58:17:06:cf:33:22:4a:
        3f:df:f1:b7:3a:85:fa:c2:94:b5:25:c8:8b:5a:b2:df:b2:ee:
        a2:95:2d:bc:5d:fb:9e:f0:f0:db:33:8b:0e:f3:fb:47:1f:06:
        60:59:0c:42:84:b1:d6:a7:97:27:28:fa:b2:33:a0:94:42:c7:
        8b:96:54:be:98:79:6c:e6:83:90:99:33:61:55:6c:79:dc:db:
        f5:0f:db:b7:f1:6a:ef:84
-----BEGIN CERTIFICATE-----
MIIE3zCCAsegAwIBAgIUWS7OJsSbcgJakO9cTlGXgajcemgwDQYJKoZIhvcNAQEL
BQAwOjELMAkGA1UEBhMCRVMxEzARBgNVBAoMCkNyaXB0b25pa2ExFjAUBgNVBAMM
DVN1YiBDQSBTZXJ2ZXIwHhcNMjQxMTEzMjE0NjIxWhcNMzQxMTExMjE0NjIxWjA2
MQswCQYDVQQGEwJFUzETMBEGA1UECgwKQ3JpcHRvbmlrYTESMBAGA1UEAwwJc2Vy
dmVyVExTMIIBIjANBgkqhkiG9w0BAQEFAAOCAQ8AMIIBCgKCAQEAp15qfjJUzHUM
VajraYrS0o4kocTcqDPGoEzkgxCpD9Dzr+fFj/s1Y4KTbxMTa4fAt9mGW16BXJeV
gWHcKew06MmXcaMRLkECNLumBnE7gZykkAWRW4EOp6/bUtm+bXelZG7OL4JClsxL
ByYnZsvR1zHk4MN+f73u1CSOWrpSCccDsLX0znuUJ+LEvFbvrdi2nMmw6qSLr1uN
PxvIXQg34/aw0Djs0z7yMkmpyaRo5/Zk4XtNVe7TQ6YuXYxlvXWCuVGFGix4gJS+
0/6Sw6OV6jiVQdrUltml7CGQ3NSEIpX7GsvOT8RRD/zcoz0SwUXI33Jacgr9285W
IJkYncUPtwIDAQABo4HgMIHdMF4GCCsGAQUFBwEBBFIwUDAmBggrBgEFBQcwAoYa
aHR0cDovL3R1LXVybC1jYS90dS1jYS5jcnQwJgYIKwYBBQUHMAGGGmh0dHA6Ly9v
Y3NwLnR1LXVybC1jYTo5MDgwMB8GA1UdIwQYMBaAFAfV7Xu8En75ifr/CVZMqBb0
Suk2MAwGA1UdEwEB/wQCMAAwHQYDVR0lBBYwFAYIKwYBBQUHAwIGCCsGAQUFBwMB
MA4GA1UdDwEB/wQEAwIFoDAdBgNVHQ4EFgQU2H+wXJsW5xOmE76y32vFVGDyINYw
DQYJKoZIhvcNAQELBQADggIBAEdhD/XNgIkIVBT6yB0hB42n2JVziUQQpksDFwru
fEbh50wNXM7SPplBFlEfB/RSAAxjoD9oMH3xJ+2FOppyvEqSXSzJmBWsQk3OzY0J
FI2JZgrEg0H251kW1RjvOY/p4X+fw8cZd6QnKeQjxUt1lxIrpZZ0JqUvqlCEUCd2
5zFki0Ks/KU1A9pn5e8lCKpaeyPzq4iV5BMWFjTcHd2w6RcZps1W03d14eS8lVsw
3N9YskjI2GBtmEvXwM9aWv6dBPVztmyLwt2LiPUYGiJLoA6P2zdJo/t2A1LWCIUd
RAIFzO+gr8oNZ6vCSTlEnXQtiWEiCBQUs1iht0RE3yWpGKb0mwRkKraod/Agzjb3
OU/vWC7VhTjq1oWf4OsQNnDBf95uzRmUbnoTgJeTegew2WHlHB7bQm5REQUAI6rb
xtMpdtsG0XmxjiaTrNZqdg8+oUjfhiOsmN4cmiRTuDbCRvrUvYtp8U/sEkyglmVp
YDfOgymDyxFXLOF3dhHwoBRmFZQaRmqgCt4tbCbueKwUT+Or9jUv9Dzd+ZgpUNA/
x/0PkKtltWnP6GUsWBcGzzMiSj/f8bc6hfrClLUlyItast+y7qKVLbxd+57w8Nsz
iw7z+0cfBmBZDEKEsdanlyco+rIzoJRCx4uWVL6YeWzmg5CZM2FVbHnc2/UP27fx
au+E
-----END CERTIFICATE-----
