Certificate:
    Data:
        Version: 3 (0x2)
        Serial Number:
            5f:b8:e0:5b:05:b3:7c:35:9a:9d:0c:a3:b8:55:6f:a1:8e:6a:ae:ad
        Signature Algorithm: sha256WithRSAEncryption
        Issuer: C=ES, O=Criptonika, CN=Sub CA Server
        Validity
            Not Before: Nov 13 18:05:45 2024 GMT
            Not After : Nov 11 18:05:45 2034 GMT
        Subject: C=ES, O=Criptonika, CN=Sub OCSP Server Responder
        Subject Public Key Info:
            Public Key Algorithm: rsaEncryption
                Public-Key: (2048 bit)
                Modulus:
                    00:ae:74:55:b3:4c:f7:3f:ae:18:47:0f:76:e7:85:
                    8c:e7:ed:8d:7d:fd:d0:3d:ad:20:6a:8f:04:bf:7c:
                    ca:75:ae:df:24:3b:16:cc:0c:c4:74:38:d9:7f:84:
                    17:d5:da:d4:73:0c:75:51:d8:7c:08:ed:c8:2e:68:
                    e2:60:61:08:c0:53:cb:57:81:a8:d0:ce:17:1a:67:
                    a9:81:ac:2f:72:c3:13:ff:3d:4c:06:08:c5:1e:ca:
                    f6:bc:49:72:b5:c9:34:9c:bc:25:98:cb:eb:79:fe:
                    6b:14:2d:6a:c0:2a:de:1c:93:09:85:8c:34:45:28:
                    95:3a:66:99:e5:b9:8b:fe:d4:f7:dc:ad:17:fd:15:
                    29:63:c7:33:74:b6:90:35:9f:18:b6:2d:75:69:39:
                    10:7d:7c:05:e8:ce:43:17:16:a5:fb:3e:6f:80:0f:
                    55:50:34:65:ae:f3:7d:74:a3:b9:60:af:89:5b:15:
                    d2:4b:7b:49:a5:72:44:6f:02:51:8e:aa:2f:87:15:
                    f6:e1:7b:6f:79:1b:2c:2f:62:7a:c5:18:f8:8a:9c:
                    27:13:a2:ea:85:3d:bd:d7:37:ab:7d:35:69:74:49:
                    ae:41:fc:3e:ee:24:8b:2a:eb:e1:d2:08:8d:04:46:
                    d8:31:6c:15:ab:cb:b8:9a:6d:07:77:6f:aa:13:08:
                    84:61
                Exponent: 65537 (0x10001)
        X509v3 extensions:
            X509v3 Authority Key Identifier: 
                07:D5:ED:7B:BC:12:7E:F9:89:FA:FF:09:56:4C:A8:16:F4:4A:E9:36
            X509v3 Basic Constraints: critical
                CA:FALSE
            X509v3 Extended Key Usage: 
                OCSP Signing
            X509v3 Key Usage: critical
                Digital Signature
            X509v3 Subject Key Identifier: 
                19:83:98:DB:46:C0:66:DD:6C:82:94:C2:10:9D:1A:E4:06:79:73:67
    Signature Algorithm: sha256WithRSAEncryption
    Signature Value:
        63:c8:56:26:49:25:7b:85:12:0f:32:24:21:68:2b:72:e9:88:
        b5:96:ba:59:18:f5:4c:59:28:21:1e:5c:a6:14:96:58:42:21:
        32:5a:2e:91:0f:72:3a:6e:6b:c5:37:3d:36:1a:9e:36:4d:6e:
        6e:16:97:7f:55:91:de:90:dc:6f:1a:90:63:75:83:24:cd:dc:
        eb:ee:f2:9a:41:6e:6a:cc:46:54:58:eb:e0:9e:67:37:df:0b:
        f2:10:18:c5:1d:13:1e:78:95:5b:b2:27:da:a7:ae:28:e8:99:
        1d:12:e4:0c:9c:da:9f:14:6d:2f:70:fd:75:4a:82:cf:83:4c:
        56:a7:51:f0:4d:69:6e:47:c6:83:c2:f5:40:42:ae:7e:80:39:
        d8:0a:aa:c4:70:11:63:e5:1e:23:57:db:f2:31:76:65:69:22:
        6f:27:46:4d:9f:b9:fd:b5:f7:fc:5a:1d:31:7e:9a:7e:fb:db:
        9a:2e:6f:56:d4:cf:cf:c0:8d:4b:54:9f:16:f0:0c:cd:cb:dd:
        1d:4d:6a:4d:69:ef:5e:a3:7b:0a:8a:18:0e:ad:2e:d7:0c:a4:
        9b:61:6f:1e:55:06:62:f1:73:1e:98:0a:99:03:72:75:37:da:
        c5:a1:d8:17:f3:5a:eb:f2:09:46:11:38:e0:d9:99:04:48:62:
        d4:66:94:2a:3b:af:f3:37:df:34:61:de:58:ea:20:78:47:79:
        a0:3b:51:5d:8b:ca:c0:89:19:1a:84:ff:b2:40:42:94:82:eb:
        6f:a2:d9:03:96:bf:e9:7b:09:5d:74:e0:79:e3:b2:0b:8a:f5:
        33:96:35:59:55:03:ca:4a:ee:7b:e6:28:74:3e:02:a7:c9:3e:
        1e:36:4d:1b:1c:0f:a3:7a:56:68:e1:3e:81:bf:e2:15:43:40:
        45:7e:27:64:6b:03:5c:34:91:55:80:d3:b1:e0:d9:48:d7:1a:
        09:df:86:7a:c4:16:92:1c:59:50:ce:15:6f:be:70:61:76:1d:
        52:ec:c6:0f:5c:26:4a:65:82:f1:8e:ce:03:67:4e:0f:38:c3:
        22:b6:8b:15:0e:d6:47:1b:0b:a8:2e:21:38:f1:42:c0:89:6d:
        1d:dd:e6:07:5e:e7:4f:45:82:ff:52:e6:72:00:b8:a3:1c:40:
        b1:7b:66:f5:2a:e6:ba:5b:66:1e:24:b3:a9:37:1c:4f:d2:f4:
        3f:b1:eb:f2:da:d7:48:43:61:73:25:18:03:4e:8e:65:c3:f7:
        f1:d2:a8:6d:c5:45:0e:37:8e:15:70:86:e5:0f:db:2f:87:8b:
        0d:1c:a8:18:8e:7c:f0:62:27:ec:31:b2:f3:8c:89:ed:64:29:
        92:51:7b:8d:97:b1:67:ee
-----BEGIN CERTIFICATE-----
MIIEgzCCAmugAwIBAgIUX7jgWwWzfDWanQyjuFVvoY5qrq0wDQYJKoZIhvcNAQEL
BQAwOjELMAkGA1UEBhMCRVMxEzARBgNVBAoMCkNyaXB0b25pa2ExFjAUBgNVBAMM
DVN1YiBDQSBTZXJ2ZXIwHhcNMjQxMTEzMTgwNTQ1WhcNMzQxMTExMTgwNTQ1WjBG
MQswCQYDVQQGEwJFUzETMBEGA1UECgwKQ3JpcHRvbmlrYTEiMCAGA1UEAwwZU3Vi
IE9DU1AgU2VydmVyIFJlc3BvbmRlcjCCASIwDQYJKoZIhvcNAQEBBQADggEPADCC
AQoCggEBAK50VbNM9z+uGEcPdueFjOftjX390D2tIGqPBL98ynWu3yQ7FswMxHQ4
2X+EF9Xa1HMMdVHYfAjtyC5o4mBhCMBTy1eBqNDOFxpnqYGsL3LDE/89TAYIxR7K
9rxJcrXJNJy8JZjL63n+axQtasAq3hyTCYWMNEUolTpmmeW5i/7U99ytF/0VKWPH
M3S2kDWfGLYtdWk5EH18BejOQxcWpfs+b4APVVA0Za7zfXSjuWCviVsV0kt7SaVy
RG8CUY6qL4cV9uF7b3kbLC9iesUY+IqcJxOi6oU9vdc3q301aXRJrkH8Pu4kiyrr
4dIIjQRG2DFsFavLuJptB3dvqhMIhGECAwEAAaN1MHMwHwYDVR0jBBgwFoAUB9Xt
e7wSfvmJ+v8JVkyoFvRK6TYwDAYDVR0TAQH/BAIwADATBgNVHSUEDDAKBggrBgEF
BQcDCTAOBgNVHQ8BAf8EBAMCB4AwHQYDVR0OBBYEFBmDmNtGwGbdbIKUwhCdGuQG
eXNnMA0GCSqGSIb3DQEBCwUAA4ICAQBjyFYmSSV7hRIPMiQhaCty6Yi1lrpZGPVM
WSghHlymFJZYQiEyWi6RD3I6bmvFNz02Gp42TW5uFpd/VZHekNxvGpBjdYMkzdzr
7vKaQW5qzEZUWOvgnmc33wvyEBjFHRMeeJVbsifap64o6JkdEuQMnNqfFG0vcP11
SoLPg0xWp1HwTWluR8aDwvVAQq5+gDnYCqrEcBFj5R4jV9vyMXZlaSJvJ0ZNn7n9
tff8Wh0xfpp++9uaLm9W1M/PwI1LVJ8W8AzNy90dTWpNae9eo3sKihgOrS7XDKSb
YW8eVQZi8XMemAqZA3J1N9rFodgX81rr8glGETjg2ZkESGLUZpQqO6/zN980Yd5Y
6iB4R3mgO1Fdi8rAiRkahP+yQEKUgutvotkDlr/pewlddOB547ILivUzljVZVQPK
Su575ih0PgKnyT4eNk0bHA+jelZo4T6Bv+IVQ0BFfidkawNcNJFVgNOx4NlI1xoJ
34Z6xBaSHFlQzhVvvnBhdh1S7MYPXCZKZYLxjs4DZ04POMMitosVDtZHGwuoLiE4
8ULAiW0d3eYHXudPRYL/UuZyALijHECxe2b1Kua6W2YeJLOpNxxP0vQ/sevy2tdI
Q2FzJRgDTo5lw/fx0qhtxUUON44VcIblD9svh4sNHKgYjnzwYifsMbLzjIntZCmS
UXuNl7Fn7g==
-----END CERTIFICATE-----
