Certificate:
    Data:
        Version: 3 (0x2)
        Serial Number:
            57:90:fa:75:ba:16:25:be:55:b3:76:7d:55:96:83:10:f6:d9:43:61
        Signature Algorithm: sha256WithRSAEncryption
        Issuer: C=ES, O=Criptonika, CN=Sub CA Client
        Validity
            Not Before: Nov 13 19:47:14 2024 GMT
            Not After : Nov 11 19:47:14 2034 GMT
        Subject: C=ES, O=Criptonika, CN=serverTLS
        Subject Public Key Info:
            Public Key Algorithm: rsaEncryption
                Public-Key: (2048 bit)
                Modulus:
                    00:a7:5e:6a:7e:32:54:cc:75:0c:55:a8:eb:69:8a:
                    d2:d2:8e:24:a1:c4:dc:a8:33:c6:a0:4c:e4:83:10:
                    a9:0f:d0:f3:af:e7:c5:8f:fb:35:63:82:93:6f:13:
                    13:6b:87:c0:b7:d9:86:5b:5e:81:5c:97:95:81:61:
                    dc:29:ec:34:e8:c9:97:71:a3:11:2e:41:02:34:bb:
                    a6:06:71:3b:81:9c:a4:90:05:91:5b:81:0e:a7:af:
                    db:52:d9:be:6d:77:a5:64:6e:ce:2f:82:42:96:cc:
                    4b:07:26:27:66:cb:d1:d7:31:e4:e0:c3:7e:7f:bd:
                    ee:d4:24:8e:5a:ba:52:09:c7:03:b0:b5:f4:ce:7b:
                    94:27:e2:c4:bc:56:ef:ad:d8:b6:9c:c9:b0:ea:a4:
                    8b:af:5b:8d:3f:1b:c8:5d:08:37:e3:f6:b0:d0:38:
                    ec:d3:3e:f2:32:49:a9:c9:a4:68:e7:f6:64:e1:7b:
                    4d:55:ee:d3:43:a6:2e:5d:8c:65:bd:75:82:b9:51:
                    85:1a:2c:78:80:94:be:d3:fe:92:c3:a3:95:ea:38:
                    95:41:da:d4:96:d9:a5:ec:21:90:dc:d4:84:22:95:
                    fb:1a:cb:ce:4f:c4:51:0f:fc:dc:a3:3d:12:c1:45:
                    c8:df:72:5a:72:0a:fd:db:ce:56:20:99:18:9d:c5:
                    0f:b7
                Exponent: 65537 (0x10001)
        X509v3 extensions:
            Authority Information Access: 
                CA Issuers - URI:http://tu-url-ca/tu-ca.crt
                OCSP - URI:http://ocsp.tu-url-ca:9080
            X509v3 Authority Key Identifier: 
                DE:FD:50:A5:6D:CA:A0:7F:16:A6:22:2A:E7:1A:4F:D1:39:F8:8A:23
            X509v3 Basic Constraints: critical
                CA:FALSE
            X509v3 Extended Key Usage: 
                TLS Web Client Authentication, TLS Web Server Authentication
            X509v3 Key Usage: critical
                Digital Signature, Key Encipherment
            X509v3 Subject Key Identifier: 
                D8:7F:B0:5C:9B:16:E7:13:A6:13:BE:B2:DF:6B:C5:54:60:F2:20:D6
    Signature Algorithm: sha256WithRSAEncryption
    Signature Value:
        7a:84:b4:50:2f:d2:e8:5b:9c:06:a6:23:a1:08:5c:eb:88:f7:
        0f:0a:0c:01:e1:bc:97:42:1b:8d:e7:08:96:10:d1:24:5d:a6:
        45:cd:c5:ba:97:ea:2a:f8:2f:c9:6d:1e:83:a8:8b:b6:0d:38:
        c3:1c:25:fb:65:97:e6:ae:28:60:20:b0:a2:f8:12:ec:67:e1:
        49:3e:88:87:87:8a:a4:09:9e:03:93:ec:fc:1a:9f:a2:3a:35:
        98:95:49:a5:46:bc:e1:18:75:3b:2f:8c:2c:d6:db:6a:86:64:
        14:c9:f3:1f:98:01:ae:4e:c4:32:01:d7:fc:4b:ac:6f:5e:b8:
        11:8a:75:4e:f7:fb:5f:cf:ad:f5:8c:ca:23:92:12:26:83:c3:
        a3:50:dd:ca:c3:ce:be:89:be:3c:d2:bf:4d:57:49:10:f6:50:
        57:4c:a9:7a:30:89:be:86:b3:39:16:72:90:18:60:0f:92:f4:
        b7:86:34:c8:7d:bb:5d:2c:fd:9d:5a:26:b0:50:4a:5c:ae:58:
        f3:4b:9b:e4:81:f9:5a:a4:3b:28:ba:d0:27:2d:23:24:7a:72:
        77:b6:9a:63:4f:dd:81:8a:13:03:ad:5f:7a:44:43:d4:68:75:
        65:b2:2d:dd:9f:44:f0:ee:d9:a2:d9:a0:ae:be:db:7b:fb:52:
        ae:c9:9d:c4:30:7b:74:8e:4b:2f:63:78:e8:90:70:c5:25:02:
        68:38:d9:b8:0a:0f:d5:50:35:e1:02:4a:ad:ca:99:eb:8c:47:
        64:7a:0d:5b:e4:ac:13:d3:55:ed:17:a9:8f:33:f3:0a:7d:e4:
        5f:50:3c:fd:77:cc:41:3e:f4:7c:34:9e:a5:ec:f7:11:e1:79:
        42:9a:61:94:51:78:35:6d:5f:80:95:7e:17:b8:8a:7a:6c:8e:
        75:fc:03:87:01:45:de:a7:1e:d9:3d:9a:f9:1b:07:bf:df:24:
        29:46:f4:80:c9:7a:f3:2d:ca:5a:b5:9c:39:14:7e:0f:e1:5c:
        05:d2:d7:6f:0c:ac:6c:24:84:0a:10:48:94:d2:a9:ce:fa:18:
        9f:6f:26:4f:75:f6:a9:50:34:d5:0c:1e:34:74:7a:dc:77:6d:
        a9:37:72:a5:92:e3:5f:b4:9d:4e:50:cf:23:27:76:53:fd:48:
        e2:d5:71:d4:12:b2:1f:5b:dc:95:be:4e:e6:b5:c4:42:6d:7d:
        94:ed:ed:36:6d:93:1c:02:3d:f8:3d:b5:44:0f:41:ad:b8:ed:
        73:7b:cb:7f:63:0b:3e:c4:44:4a:4d:b4:cb:40:30:5b:4f:5e:
        67:c8:82:00:1f:09:8f:a0:7b:b2:11:db:49:00:88:63:7e:33:
        d1:b5:00:2d:76:e3:5a:81
-----BEGIN CERTIFICATE-----
MIIE3zCCAsegAwIBAgIUV5D6dboWJb5Vs3Z9VZaDEPbZQ2EwDQYJKoZIhvcNAQEL
BQAwOjELMAkGA1UEBhMCRVMxEzARBgNVBAoMCkNyaXB0b25pa2ExFjAUBgNVBAMM
DVN1YiBDQSBDbGllbnQwHhcNMjQxMTEzMTk0NzE0WhcNMzQxMTExMTk0NzE0WjA2
MQswCQYDVQQGEwJFUzETMBEGA1UECgwKQ3JpcHRvbmlrYTESMBAGA1UEAwwJc2Vy
dmVyVExTMIIBIjANBgkqhkiG9w0BAQEFAAOCAQ8AMIIBCgKCAQEAp15qfjJUzHUM
VajraYrS0o4kocTcqDPGoEzkgxCpD9Dzr+fFj/s1Y4KTbxMTa4fAt9mGW16BXJeV
gWHcKew06MmXcaMRLkECNLumBnE7gZykkAWRW4EOp6/bUtm+bXelZG7OL4JClsxL
ByYnZsvR1zHk4MN+f73u1CSOWrpSCccDsLX0znuUJ+LEvFbvrdi2nMmw6qSLr1uN
PxvIXQg34/aw0Djs0z7yMkmpyaRo5/Zk4XtNVe7TQ6YuXYxlvXWCuVGFGix4gJS+
0/6Sw6OV6jiVQdrUltml7CGQ3NSEIpX7GsvOT8RRD/zcoz0SwUXI33Jacgr9285W
IJkYncUPtwIDAQABo4HgMIHdMF4GCCsGAQUFBwEBBFIwUDAmBggrBgEFBQcwAoYa
aHR0cDovL3R1LXVybC1jYS90dS1jYS5jcnQwJgYIKwYBBQUHMAGGGmh0dHA6Ly9v
Y3NwLnR1LXVybC1jYTo5MDgwMB8GA1UdIwQYMBaAFN79UKVtyqB/FqYiKucaT9E5
+IojMAwGA1UdEwEB/wQCMAAwHQYDVR0lBBYwFAYIKwYBBQUHAwIGCCsGAQUFBwMB
MA4GA1UdDwEB/wQEAwIFoDAdBgNVHQ4EFgQU2H+wXJsW5xOmE76y32vFVGDyINYw
DQYJKoZIhvcNAQELBQADggIBAHqEtFAv0uhbnAamI6EIXOuI9w8KDAHhvJdCG43n
CJYQ0SRdpkXNxbqX6ir4L8ltHoOoi7YNOMMcJftll+auKGAgsKL4Euxn4Uk+iIeH
iqQJngOT7Pwan6I6NZiVSaVGvOEYdTsvjCzW22qGZBTJ8x+YAa5OxDIB1/xLrG9e
uBGKdU73+1/PrfWMyiOSEiaDw6NQ3crDzr6JvjzSv01XSRD2UFdMqXowib6GszkW
cpAYYA+S9LeGNMh9u10s/Z1aJrBQSlyuWPNLm+SB+VqkOyi60CctIyR6cne2mmNP
3YGKEwOtX3pEQ9RodWWyLd2fRPDu2aLZoK6+23v7Uq7JncQwe3SOSy9jeOiQcMUl
Amg42bgKD9VQNeECSq3KmeuMR2R6DVvkrBPTVe0XqY8z8wp95F9QPP13zEE+9Hw0
nqXs9xHheUKaYZRReDVtX4CVfhe4inpsjnX8A4cBRd6nHtk9mvkbB7/fJClG9IDJ
evMtylq1nDkUfg/hXAXS128MrGwkhAoQSJTSqc76GJ9vJk919qlQNNUMHjR0etx3
bak3cqWS41+0nU5QzyMndlP9SOLVcdQSsh9b3JW+Tua1xEJtfZTt7TZtkxwCPfg9
tUQPQa247XN7y39jCz7EREpNtMtAMFtPXmfIggAfCY+ge7IR20kAiGN+M9G1AC12
41qB
-----END CERTIFICATE-----
