Certificate:
    Data:
        Version: 3 (0x2)
        Serial Number:
            5e:74:e9:4c:b6:af:ff:2e:48:51:20:22:a2:8b:b5:43:28:ad:08:f0
        Signature Algorithm: sha256WithRSAEncryption
        Issuer: C=ES, O=Criptonika, CN=Sub CA Client
        Validity
            Not Before: Nov 13 20:13:20 2024 GMT
            Not After : Nov 11 20:13:20 2034 GMT
        Subject: C=ES, O=Criptonika, CN=client1
        Subject Public Key Info:
            Public Key Algorithm: rsaEncryption
                Public-Key: (1024 bit)
                Modulus:
                    00:a2:8b:47:33:d8:c9:b4:64:f1:7a:55:ba:20:58:
                    f6:ca:9d:a1:cd:75:23:66:0c:1b:3b:3b:a4:ba:4d:
                    f3:e6:fb:89:93:65:e8:94:51:aa:08:08:b1:5e:97:
                    be:b8:2d:ff:18:07:c4:fc:99:fd:1b:e0:a8:17:ce:
                    40:d2:e2:c0:e9:a0:c7:4d:e1:7c:ed:91:2e:3d:d7:
                    73:14:9b:93:ef:5b:fa:8c:ff:ac:f2:0f:5d:02:25:
                    31:6d:93:dd:1a:24:e2:a1:85:12:b8:18:e9:65:0b:
                    9f:f2:ea:79:0f:9b:50:b8:0e:be:c9:7b:f8:31:4c:
                    79:4d:cb:dd:c2:12:8c:3c:ad
                Exponent: 65537 (0x10001)
        X509v3 extensions:
            Authority Information Access: 
                CA Issuers - URI:http://tu-url-ca/tu-ca.crt
                OCSP - URI:http://ocsp.tu-url-ca:9080
            X509v3 Authority Key Identifier: 
                DE:FD:50:A5:6D:CA:A0:7F:16:A6:22:2A:E7:1A:4F:D1:39:F8:8A:23
            X509v3 Basic Constraints: critical
                CA:FALSE
            X509v3 Extended Key Usage: 
                TLS Web Client Authentication
            X509v3 Key Usage: critical
                Digital Signature
            X509v3 Subject Key Identifier: 
                7F:0E:C2:86:15:20:BA:2E:DE:4B:01:B7:E4:BA:37:44:41:42:4B:49
    Signature Algorithm: sha256WithRSAEncryption
    Signature Value:
        af:6f:f0:d3:13:52:ef:8c:36:b4:54:11:79:14:73:bd:ae:11:
        32:aa:98:6f:2c:7b:c6:4d:35:d6:c8:1d:c1:98:7f:ce:e7:be:
        86:ab:0c:d5:f7:35:39:45:01:3f:c5:39:bb:e8:ed:f9:f7:16:
        fb:95:51:df:fb:b3:b6:e4:ce:17:89:ab:40:45:03:6f:4d:f6:
        06:85:cd:82:43:c0:61:07:9a:51:06:62:8f:47:4b:2c:7e:fe:
        ff:64:d0:b2:32:24:46:03:ba:a8:3e:8f:76:d1:89:8c:22:76:
        20:59:5e:d6:5b:6d:1e:8c:9f:2f:ae:d7:48:4c:3d:80:38:3f:
        fe:01:b9:9b:7c:d7:80:58:d3:77:82:07:ef:62:b8:40:7c:a8:
        62:7a:84:e7:07:1f:3f:e0:12:0a:0c:22:4e:93:66:a9:f5:2d:
        a9:5d:94:88:73:27:0a:74:fa:27:7f:80:3f:e8:13:dd:4c:93:
        65:d8:f9:94:05:b1:30:61:18:09:fc:83:9f:0e:26:02:0b:8c:
        6d:36:b3:5f:40:3a:dc:4e:ab:63:3a:ae:7f:6e:30:6f:01:e1:
        10:1b:46:36:61:6d:bb:47:da:4e:81:c5:7d:e3:04:6e:ad:0a:
        b7:94:06:04:c3:02:0f:dd:8a:f8:95:31:c2:03:5e:cb:76:3a:
        93:e2:8b:c3:6c:c9:56:83:23:c5:ea:b0:24:5e:77:07:af:e8:
        eb:14:c2:c6:b0:f9:20:2c:77:4a:0b:10:41:50:d9:7b:c6:2d:
        79:26:45:6f:fb:de:f9:7a:5c:3b:56:bd:54:1f:08:5a:19:c3:
        e0:f6:be:a3:89:60:f2:bf:3a:5a:c7:af:96:5a:0f:20:6f:a4:
        53:ab:d3:a8:e2:fe:0b:49:61:8f:0f:e5:d9:7f:60:3e:61:9b:
        42:a8:67:9f:80:24:42:83:75:63:8d:81:18:f2:4c:b9:5d:47:
        c9:24:fd:9f:a5:1b:56:22:76:43:2b:ea:91:e7:ed:3d:96:3b:
        92:8d:00:aa:9c:25:bb:57:1d:fa:77:6c:61:31:20:bf:6b:a7:
        95:30:af:05:13:c4:e9:c3:91:78:a4:ad:d7:5f:35:24:85:0f:
        04:3d:39:63:b2:b8:08:49:dc:ac:a2:07:04:19:83:a2:69:68:
        61:8b:87:02:4d:ef:31:95:3b:e2:32:93:e1:b0:f5:22:1d:69:
        b4:b6:3f:88:ed:80:42:85:e1:c5:82:27:c4:45:af:6c:41:93:
        58:3a:be:e2:33:a4:41:1f:ca:32:1d:d3:42:78:13:eb:cb:23:
        2a:e3:0c:6d:07:bc:77:88:89:55:67:c5:23:21:57:1f:be:c9:
        6e:cf:24:43:12:0e:0a:20
-----BEGIN CERTIFICATE-----
MIIETzCCAjegAwIBAgIUXnTpTLav/y5IUSAioou1QyitCPAwDQYJKoZIhvcNAQEL
BQAwOjELMAkGA1UEBhMCRVMxEzARBgNVBAoMCkNyaXB0b25pa2ExFjAUBgNVBAMM
DVN1YiBDQSBDbGllbnQwHhcNMjQxMTEzMjAxMzIwWhcNMzQxMTExMjAxMzIwWjA0
MQswCQYDVQQGEwJFUzETMBEGA1UECgwKQ3JpcHRvbmlrYTEQMA4GA1UEAwwHY2xp
ZW50MTCBnzANBgkqhkiG9w0BAQEFAAOBjQAwgYkCgYEAootHM9jJtGTxelW6IFj2
yp2hzXUjZgwbOzukuk3z5vuJk2XolFGqCAixXpe+uC3/GAfE/Jn9G+CoF85A0uLA
6aDHTeF87ZEuPddzFJuT71v6jP+s8g9dAiUxbZPdGiTioYUSuBjpZQuf8up5D5tQ
uA6+yXv4MUx5TcvdwhKMPK0CAwEAAaOB1jCB0zBeBggrBgEFBQcBAQRSMFAwJgYI
KwYBBQUHMAKGGmh0dHA6Ly90dS11cmwtY2EvdHUtY2EuY3J0MCYGCCsGAQUFBzAB
hhpodHRwOi8vb2NzcC50dS11cmwtY2E6OTA4MDAfBgNVHSMEGDAWgBTe/VClbcqg
fxamIirnGk/ROfiKIzAMBgNVHRMBAf8EAjAAMBMGA1UdJQQMMAoGCCsGAQUFBwMC
MA4GA1UdDwEB/wQEAwIHgDAdBgNVHQ4EFgQUfw7ChhUgui7eSwG35Lo3REFCS0kw
DQYJKoZIhvcNAQELBQADggIBAK9v8NMTUu+MNrRUEXkUc72uETKqmG8se8ZNNdbI
HcGYf87nvoarDNX3NTlFAT/FObvo7fn3FvuVUd/7s7bkzheJq0BFA29N9gaFzYJD
wGEHmlEGYo9HSyx+/v9k0LIyJEYDuqg+j3bRiYwidiBZXtZbbR6Mny+u10hMPYA4
P/4BuZt814BY03eCB+9iuEB8qGJ6hOcHHz/gEgoMIk6TZqn1LaldlIhzJwp0+id/
gD/oE91Mk2XY+ZQFsTBhGAn8g58OJgILjG02s19AOtxOq2M6rn9uMG8B4RAbRjZh
bbtH2k6BxX3jBG6tCreUBgTDAg/diviVMcIDXst2OpPii8NsyVaDI8XqsCRedwev
6OsUwsaw+SAsd0oLEEFQ2XvGLXkmRW/73vl6XDtWvVQfCFoZw+D2vqOJYPK/OlrH
r5ZaDyBvpFOr06ji/gtJYY8P5dl/YD5hm0KoZ5+AJEKDdWONgRjyTLldR8kk/Z+l
G1YidkMr6pHn7T2WO5KNAKqcJbtXHfp3bGExIL9rp5UwrwUTxOnDkXikrddfNSSF
DwQ9OWOyuAhJ3KyiBwQZg6JpaGGLhwJN7zGVO+Iyk+Gw9SIdabS2P4jtgEKF4cWC
J8RFr2xBk1g6vuIzpEEfyjId00J4E+vLIyrjDG0HvHeIiVVnxSMhVx++yW7PJEMS
Dgog
-----END CERTIFICATE-----
