Certificate:
    Data:
        Version: 3 (0x2)
        Serial Number:
            f8:df:93:55:c4:21:d2:a9:6a:91:98:95:92:00:53:db
        Signature Algorithm: sha256WithRSAEncryption
        Issuer: C=ES, O=Criptonika, CN=Root CA
        Validity
            Not Before: Sep 20 09:40:43 2024 GMT
            Not After : Sep 18 09:40:43 2034 GMT
        Subject: C=ES, O=Criptonika, CN=Root CA
        Subject Public Key Info:
            Public Key Algorithm: rsaEncryption
                Public-Key: (4096 bit)
                Modulus:
                    00:d1:fc:88:73:71:6f:3a:54:1b:b3:6d:59:ad:3d:
                    0c:d2:ff:de:1e:2f:1a:be:db:51:c3:c6:d1:ac:ae:
                    12:c3:bb:ed:03:12:5a:39:9a:73:9c:20:97:38:7c:
                    10:b9:9f:1d:d8:96:c6:94:ec:26:e8:3b:1c:ce:16:
                    42:f0:80:a9:79:b6:a6:c1:f0:66:c1:71:c6:3b:02:
                    60:60:29:aa:ae:c4:33:d4:08:78:f5:d8:1a:22:74:
                    01:3a:75:39:2e:de:cd:51:ad:9e:e0:0d:94:56:03:
                    66:23:5a:28:90:b3:49:34:de:5e:94:ae:3d:40:70:
                    61:b9:77:28:bf:8e:40:85:fe:3b:4a:75:90:cf:9c:
                    63:9f:0c:31:24:54:a0:ae:d9:63:87:c5:9e:9b:e8:
                    f2:b0:62:ba:51:62:26:43:8d:f9:dc:94:d5:a4:24:
                    93:7e:cd:da:09:2a:af:6c:f8:09:79:77:06:b5:57:
                    eb:f1:1b:34:0f:9a:c3:5d:7b:33:51:5f:6d:ba:fd:
                    3f:4e:95:5b:2e:3c:ce:e5:86:41:0b:38:90:b0:4c:
                    ad:e0:35:05:df:f0:ab:c1:dd:5e:50:8e:5f:48:28:
                    74:14:d1:40:f0:c9:9d:02:09:77:2e:90:de:e0:a3:
                    3b:01:05:13:c0:4f:ec:84:d7:8d:5e:07:d6:ce:d7:
                    f9:19:68:15:b4:27:65:ce:56:56:ed:22:0b:1d:d1:
                    80:b4:14:eb:bd:ee:bc:dd:9d:03:a4:b8:01:47:15:
                    2a:b4:41:b9:1c:51:b0:ed:dc:32:64:e9:30:d1:4d:
                    5f:34:d4:21:5c:48:91:56:b7:df:ec:ff:f3:89:8d:
                    b6:77:35:e2:30:a6:89:ec:b5:1d:d7:a8:3b:ff:3f:
                    a5:a8:ee:9c:c9:bf:f6:5b:f6:c8:0e:42:f7:86:5e:
                    d3:01:36:03:92:82:5a:e5:b5:3a:48:a3:6c:84:b7:
                    07:d4:15:9c:75:fa:e7:3f:5c:e9:2b:bc:61:ac:89:
                    c4:10:70:75:53:48:25:35:3b:b0:be:09:e1:c0:3b:
                    1f:87:55:c8:ed:56:c3:23:22:2a:30:2c:96:3f:7f:
                    8c:90:ae:5a:7b:bc:60:a6:e8:f9:61:88:11:2e:0c:
                    08:2f:b6:68:91:4e:8b:98:6e:38:92:09:e4:55:41:
                    6e:a1:f2:86:2a:d8:e9:a5:3a:78:4d:64:67:90:09:
                    1f:b7:c1:0b:34:d2:c7:35:5f:84:62:29:52:81:05:
                    4b:1d:60:b1:26:39:de:a9:f1:73:ee:01:ca:0c:32:
                    7f:21:17:97:a5:42:99:ff:bf:91:2f:57:91:e7:73:
                    b6:71:90:ec:9f:13:da:65:aa:25:68:79:f5:e3:b2:
                    2b:b1:a9
                Exponent: 65537 (0x10001)
        X509v3 extensions:
            X509v3 Basic Constraints: critical
                CA:TRUE
            X509v3 Key Usage: critical
                Certificate Sign, CRL Sign
            X509v3 Subject Key Identifier: 
                AC:DC:9E:1F:6F:EA:37:0C:7A:47:63:B0:8E:B5:54:48:AB:A8:23:E1
    Signature Algorithm: sha256WithRSAEncryption
    Signature Value:
        83:cb:59:7e:75:f6:42:6c:39:e8:c1:1c:10:7d:a9:6f:3e:bb:
        a6:3e:3f:54:59:ed:2d:26:57:e8:9a:30:c3:54:e9:4f:61:46:
        1f:bc:fb:59:bf:62:ff:39:43:b0:1d:e3:3d:37:84:fe:fa:a0:
        42:46:9c:53:ae:5a:91:d7:b0:25:93:66:7b:f7:e3:00:f6:b9:
        53:c2:f4:59:4b:04:70:d5:70:4e:19:02:4d:9b:3d:2e:01:f0:
        64:81:9a:8b:3e:68:c4:7c:e4:2e:8d:f4:cf:f3:4f:e1:04:45:
        f2:f2:e5:ea:8d:e0:5f:f9:fb:4c:60:b4:49:72:e6:b6:1d:21:
        fb:3e:4d:6f:53:6f:31:28:e0:5a:64:59:55:7e:2d:c9:00:a2:
        f2:29:a6:8d:d5:86:d1:02:b4:ab:5e:be:32:f8:d1:c5:c7:01:
        db:63:ae:df:cd:76:16:06:71:d8:92:5d:ed:3e:3c:99:6b:9f:
        a8:91:13:c9:3f:7b:91:b1:99:1a:d2:1d:8a:51:56:9f:89:b4:
        e7:1f:0b:42:e9:05:2d:ec:a1:32:11:46:57:a8:93:89:ca:56:
        8a:9c:99:bf:bc:3f:a9:c5:20:b6:18:f6:b4:63:46:f6:0a:47:
        6d:cc:c6:4f:45:30:be:d4:2e:e9:9c:7a:f7:ce:cb:1a:5b:9b:
        0f:2f:c1:38:01:11:50:64:f7:6e:95:98:04:4e:a3:4d:f0:9a:
        63:46:26:02:dc:99:0f:97:c8:a3:65:03:6b:ac:30:f1:e7:9c:
        f6:83:04:60:a6:56:93:fd:ec:99:98:18:cb:c7:f6:f2:42:d7:
        73:eb:fb:c8:88:03:9b:10:76:ff:19:69:e0:ec:23:be:f7:e0:
        be:e4:73:5f:67:13:b1:c0:be:19:31:92:e7:44:79:b8:39:01:
        40:e4:f6:63:35:7a:55:ff:2b:5d:a6:d3:02:c4:1b:54:f4:4a:
        17:37:8a:35:64:ce:03:14:d5:01:63:40:4c:fb:2b:45:29:f2:
        89:e4:82:8e:f9:65:e2:bb:a8:0c:a1:e0:81:c5:14:23:73:05:
        99:00:f9:58:87:6c:64:77:38:68:4c:b1:4c:33:4a:f3:0c:7b:
        97:b9:74:bf:2d:99:14:6c:9e:9d:4d:2d:20:60:45:46:42:7f:
        d3:ad:a0:71:7a:ac:12:7d:39:e6:e7:67:58:cb:fb:e5:dd:76:
        e1:7d:94:89:c0:a2:3c:12:0b:b2:ee:d4:69:24:7a:e9:70:e5:
        f7:db:55:b2:27:4e:9f:4c:8f:ed:d4:26:ea:4e:97:ca:01:13:
        77:34:62:54:b3:16:0b:d1:1f:e2:66:42:a3:d4:72:37:06:73:
        70:f2:89:10:be:ee:29:86
-----BEGIN CERTIFICATE-----
MIIFNTCCAx2gAwIBAgIRAPjfk1XEIdKpapGYlZIAU9swDQYJKoZIhvcNAQELBQAw
NDELMAkGA1UEBhMCRVMxEzARBgNVBAoMCkNyaXB0b25pa2ExEDAOBgNVBAMMB1Jv
b3QgQ0EwHhcNMjQwOTIwMDk0MDQzWhcNMzQwOTE4MDk0MDQzWjA0MQswCQYDVQQG
EwJFUzETMBEGA1UECgwKQ3JpcHRvbmlrYTEQMA4GA1UEAwwHUm9vdCBDQTCCAiIw
DQYJKoZIhvcNAQEBBQADggIPADCCAgoCggIBANH8iHNxbzpUG7NtWa09DNL/3h4v
Gr7bUcPG0ayuEsO77QMSWjmac5wglzh8ELmfHdiWxpTsJug7HM4WQvCAqXm2psHw
ZsFxxjsCYGApqq7EM9QIePXYGiJ0ATp1OS7ezVGtnuANlFYDZiNaKJCzSTTeXpSu
PUBwYbl3KL+OQIX+O0p1kM+cY58MMSRUoK7ZY4fFnpvo8rBiulFiJkON+dyU1aQk
k37N2gkqr2z4CXl3BrVX6/EbNA+aw117M1Ffbbr9P06VWy48zuWGQQs4kLBMreA1
Bd/wq8HdXlCOX0godBTRQPDJnQIJdy6Q3uCjOwEFE8BP7ITXjV4H1s7X+RloFbQn
Zc5WVu0iCx3RgLQU673uvN2dA6S4AUcVKrRBuRxRsO3cMmTpMNFNXzTUIVxIkVa3
3+z/84mNtnc14jCmiey1HdeoO/8/pajunMm/9lv2yA5C94Ze0wE2A5KCWuW1Okij
bIS3B9QVnHX65z9c6Su8YayJxBBwdVNIJTU7sL4J4cA7H4dVyO1WwyMiKjAslj9/
jJCuWnu8YKbo+WGIES4MCC+2aJFOi5huOJIJ5FVBbqHyhirY6aU6eE1kZ5AJH7fB
CzTSxzVfhGIpUoEFSx1gsSY53qnxc+4BygwyfyEXl6VCmf+/kS9XkedztnGQ7J8T
2mWqJWh59eOyK7GpAgMBAAGjQjBAMA8GA1UdEwEB/wQFMAMBAf8wDgYDVR0PAQH/
BAQDAgEGMB0GA1UdDgQWBBSs3J4fb+o3DHpHY7COtVRIq6gj4TANBgkqhkiG9w0B
AQsFAAOCAgEAg8tZfnX2Qmw56MEcEH2pbz67pj4/VFntLSZX6Joww1TpT2FGH7z7
Wb9i/zlDsB3jPTeE/vqgQkacU65akdewJZNme/fjAPa5U8L0WUsEcNVwThkCTZs9
LgHwZIGaiz5oxHzkLo30z/NP4QRF8vLl6o3gX/n7TGC0SXLmth0h+z5Nb1NvMSjg
WmRZVX4tyQCi8immjdWG0QK0q16+MvjRxccB22Ou3812FgZx2JJd7T48mWufqJET
yT97kbGZGtIdilFWn4m05x8LQukFLeyhMhFGV6iTicpWipyZv7w/qcUgthj2tGNG
9gpHbczGT0UwvtQu6Zx6987LGlubDy/BOAERUGT3bpWYBE6jTfCaY0YmAtyZD5fI
o2UDa6ww8eec9oMEYKZWk/3smZgYy8f28kLXc+v7yIgDmxB2/xlp4OwjvvfgvuRz
X2cTscC+GTGS50R5uDkBQOT2YzV6Vf8rXabTAsQbVPRKFzeKNWTOAxTVAWNATPsr
RSnyieSCjvll4ruoDKHggcUUI3MFmQD5WIdsZHc4aEyxTDNK8wx7l7l0vy2ZFGye
nU0tIGBFRkJ/062gcXqsEn055udnWMv75d124X2UicCiPBILsu7UaSR66XDl99tV
sidOn0yP7dQm6k6XygETdzRiVLMWC9Ef4mZCo9RyNwZzcPKJEL7uKYY=
-----END CERTIFICATE-----
