Certificate:
    Data:
        Version: 3 (0x2)
        Serial Number:
            0c:22:b9:17:91:6f:44:ac:4f:88:10:fa:d0:22:41:29:d9:a9:d0:0d
        Signature Algorithm: sha256WithRSAEncryption
        Issuer: C=ES, O=Criptonika, CN=Root CA
        Validity
            Not Before: Nov 13 19:40:03 2024 GMT
            Not After : Nov 11 19:40:03 2034 GMT
        Subject: C=ES, O=Criptonika, CN=Sub CA Client
        Subject Public Key Info:
            Public Key Algorithm: rsaEncryption
                Public-Key: (4096 bit)
                Modulus:
                    00:f4:b6:6c:95:49:c2:4f:ce:ec:5c:c4:1c:34:cd:
                    48:fa:91:53:0a:36:15:1f:53:89:2c:a7:f9:3f:72:
                    6f:53:61:bd:cf:a2:70:c5:50:0e:22:ad:be:b7:3d:
                    33:3f:ac:94:0d:53:17:be:f6:f2:ae:18:14:bb:39:
                    31:f3:87:07:ef:a6:48:f4:b2:28:c0:dd:e6:54:2d:
                    e7:0f:72:2a:66:5f:4f:e2:2c:76:ba:ca:34:49:0c:
                    43:8e:9f:7d:12:81:35:f1:c1:8f:f3:52:be:a3:d1:
                    0c:9b:82:61:68:29:38:79:c7:78:19:43:51:0e:e7:
                    a1:c9:e8:65:97:b8:f4:38:a7:35:d1:aa:a1:e2:f1:
                    bc:85:d4:e8:1f:db:bf:ad:e4:1d:9c:ba:b6:74:53:
                    09:e7:64:f5:0a:ef:88:4d:f5:2c:93:76:a2:a2:d9:
                    fd:21:49:d4:1f:cd:93:ac:f0:23:93:b5:64:36:56:
                    d9:d1:20:56:8b:e2:ef:a0:b3:0c:9b:ac:e4:9a:08:
                    46:7d:cd:be:f8:65:d4:39:f0:e6:de:7d:65:df:b2:
                    16:8d:4f:58:99:c9:ee:85:72:ad:f5:41:a1:d1:2d:
                    3f:be:4d:64:1e:33:ef:cc:4e:b4:85:8b:36:02:ab:
                    67:da:80:d1:84:1c:40:bd:76:ac:6b:3a:b5:83:a6:
                    55:86:92:2d:9a:c2:4e:dc:c8:36:9d:40:d7:26:f0:
                    2d:d0:d7:d4:fa:93:03:04:d2:b9:72:1a:0f:79:fd:
                    f0:39:ba:44:19:96:74:b1:af:be:46:d7:24:fe:fa:
                    33:3d:cf:fb:0d:32:4f:a5:52:5d:a4:19:e2:51:00:
                    81:ca:53:25:9c:64:42:0c:ee:43:af:ee:e9:0d:7d:
                    e1:50:33:8b:ae:22:bb:41:b0:a7:f6:d4:04:69:ae:
                    18:34:fd:01:bb:55:83:27:b5:33:3d:73:02:f5:8c:
                    a4:e6:bf:dd:6b:b1:99:ea:eb:75:4f:80:01:16:c4:
                    79:c0:73:df:87:43:44:49:96:50:e8:a0:d6:47:a5:
                    79:0a:51:46:ca:9d:e7:3d:62:c3:be:82:12:e8:c3:
                    35:a7:14:88:55:87:d2:3e:b1:b8:70:8c:b0:b7:a9:
                    3c:a3:7e:06:f1:77:b6:71:9f:2a:a7:44:bc:bb:1c:
                    07:01:cc:0b:56:65:60:dd:29:42:e0:9e:22:75:b1:
                    43:03:09:05:2d:82:40:28:1a:e2:8e:fd:73:04:ae:
                    5d:e3:0b:ba:5e:1f:c8:94:ba:72:ed:b2:aa:c9:f7:
                    b0:47:cb:37:a1:08:77:43:d6:94:73:fb:7f:74:47:
                    69:92:ca:84:e2:60:d7:b0:a0:14:d3:13:44:fd:5f:
                    2c:f2:55
                Exponent: 65537 (0x10001)
        X509v3 extensions:
            Authority Information Access: 
                CA Issuers - URI:http://tu-url-ca/tu-ca.crt
                OCSP - URI:http://ocsp.tu-url-ca:9080
            X509v3 Authority Key Identifier: 
                AC:DC:9E:1F:6F:EA:37:0C:7A:47:63:B0:8E:B5:54:48:AB:A8:23:E1
            X509v3 Basic Constraints: critical
                CA:TRUE, pathlen:0
            X509v3 Extended Key Usage: 
                TLS Web Client Authentication, TLS Web Server Authentication
            X509v3 Key Usage: critical
                Certificate Sign, CRL Sign
            X509v3 Subject Key Identifier: 
                DE:FD:50:A5:6D:CA:A0:7F:16:A6:22:2A:E7:1A:4F:D1:39:F8:8A:23
    Signature Algorithm: sha256WithRSAEncryption
    Signature Value:
        a8:a9:f0:fc:84:90:5b:a8:e9:6d:c8:8a:3d:47:cf:f7:04:20:
        d9:81:a2:7b:c5:ae:75:cf:bc:34:90:a9:4f:1e:86:bd:2e:f9:
        f0:a0:ca:d1:9d:4f:da:f1:91:aa:de:71:e6:6f:c9:3b:1e:bd:
        bd:55:61:e2:49:a8:9a:12:97:c2:11:ce:bb:6b:4c:92:ea:71:
        3c:30:40:83:00:a5:01:5f:20:cc:c3:e3:2d:da:64:6f:64:1c:
        fa:74:36:cd:c2:79:19:44:75:cc:76:2d:c9:01:5f:f8:b6:ba:
        96:e1:63:51:57:f8:9a:c3:42:ae:ac:e6:67:26:8e:57:07:5a:
        bc:5a:55:17:fe:bb:91:1f:ed:61:1a:0d:7f:91:b3:e7:43:9c:
        dc:38:19:4e:af:f5:44:0d:b8:9b:de:f4:0f:f9:1c:96:be:ec:
        c1:8b:bb:44:32:0b:a6:b8:5f:41:75:3b:fb:75:90:2d:c1:ca:
        5b:f1:ec:87:29:90:9d:b1:3e:e9:1a:cf:a3:53:53:6d:d3:0a:
        df:41:a5:a2:0f:8d:32:67:3b:45:17:4e:91:87:f6:a9:ee:b5:
        65:3b:9d:da:e5:af:05:24:09:79:2b:c2:cf:5e:ea:55:10:bb:
        4a:75:f0:93:72:a5:c9:82:53:d7:26:c9:2e:be:7d:5b:79:24:
        ee:5c:20:6f:22:f0:03:3e:5c:6a:13:6b:52:8e:66:dd:1c:b7:
        ad:f8:9c:ac:7a:bd:60:d0:51:90:f3:ad:00:e9:e4:21:21:f2:
        a5:81:b3:78:2f:03:2f:ea:7d:06:89:cd:a3:83:cc:1d:27:4a:
        d5:03:27:78:39:96:f4:f0:90:51:66:7f:a9:80:5b:0e:9a:70:
        93:f3:48:a4:16:27:8d:af:1d:e3:d1:4e:d9:b0:a9:70:8d:c5:
        ce:2a:c6:e9:eb:cf:10:ba:e5:57:56:33:72:c2:8c:08:08:37:
        35:d4:d0:3b:81:5e:f3:81:a9:a5:bb:c4:86:a8:09:22:1f:a0:
        a2:41:39:4f:8a:a5:f5:6a:5f:b3:85:1c:b4:11:46:a1:fd:8b:
        14:61:47:f6:ba:0c:06:ab:e1:44:60:09:06:b9:f1:eb:e2:9a:
        d1:39:27:26:3f:7f:b8:89:0f:ff:b4:fb:48:38:74:92:c1:33:
        26:f0:fa:ff:a4:66:88:fe:33:87:11:78:b8:70:9f:7f:a0:87:
        6d:31:52:67:e1:36:60:86:12:23:ca:5e:d1:9f:26:be:30:5a:
        7f:f2:63:34:c5:a3:a8:0f:f9:eb:a1:5b:69:c4:5e:cf:e1:fa:
        60:d7:76:79:11:d5:88:09:2b:18:fa:1c:94:5a:94:f6:93:7b:
        15:c8:c3:11:0d:3f:de:11
-----BEGIN CERTIFICATE-----
MIIF4zCCA8ugAwIBAgIUDCK5F5FvRKxPiBD60CJBKdmp0A0wDQYJKoZIhvcNAQEL
BQAwNDELMAkGA1UEBhMCRVMxEzARBgNVBAoMCkNyaXB0b25pa2ExEDAOBgNVBAMM
B1Jvb3QgQ0EwHhcNMjQxMTEzMTk0MDAzWhcNMzQxMTExMTk0MDAzWjA6MQswCQYD
VQQGEwJFUzETMBEGA1UECgwKQ3JpcHRvbmlrYTEWMBQGA1UEAwwNU3ViIENBIENs
aWVudDCCAiIwDQYJKoZIhvcNAQEBBQADggIPADCCAgoCggIBAPS2bJVJwk/O7FzE
HDTNSPqRUwo2FR9TiSyn+T9yb1Nhvc+icMVQDiKtvrc9Mz+slA1TF7728q4YFLs5
MfOHB++mSPSyKMDd5lQt5w9yKmZfT+IsdrrKNEkMQ46ffRKBNfHBj/NSvqPRDJuC
YWgpOHnHeBlDUQ7nocnoZZe49DinNdGqoeLxvIXU6B/bv63kHZy6tnRTCedk9Qrv
iE31LJN2oqLZ/SFJ1B/Nk6zwI5O1ZDZW2dEgVovi76CzDJus5JoIRn3Nvvhl1Dnw
5t59Zd+yFo1PWJnJ7oVyrfVBodEtP75NZB4z78xOtIWLNgKrZ9qA0YQcQL12rGs6
tYOmVYaSLZrCTtzINp1A1ybwLdDX1PqTAwTSuXIaD3n98Dm6RBmWdLGvvkbXJP76
Mz3P+w0yT6VSXaQZ4lEAgcpTJZxkQgzuQ6/u6Q194VAzi64iu0Gwp/bUBGmuGDT9
AbtVgye1Mz1zAvWMpOa/3WuxmerrdU+AARbEecBz34dDREmWUOig1keleQpRRsqd
5z1iw76CEujDNacUiFWH0j6xuHCMsLepPKN+BvF3tnGfKqdEvLscBwHMC1ZlYN0p
QuCeInWxQwMJBS2CQCga4o79cwSuXeMLul4fyJS6cu2yqsn3sEfLN6EId0PWlHP7
f3RHaZLKhOJg17CgFNMTRP1fLPJVAgMBAAGjgeYwgeMwXgYIKwYBBQUHAQEEUjBQ
MCYGCCsGAQUFBzAChhpodHRwOi8vdHUtdXJsLWNhL3R1LWNhLmNydDAmBggrBgEF
BQcwAYYaaHR0cDovL29jc3AudHUtdXJsLWNhOjkwODAwHwYDVR0jBBgwFoAUrNye
H2/qNwx6R2OwjrVUSKuoI+EwEgYDVR0TAQH/BAgwBgEB/wIBADAdBgNVHSUEFjAU
BggrBgEFBQcDAgYIKwYBBQUHAwEwDgYDVR0PAQH/BAQDAgEGMB0GA1UdDgQWBBTe
/VClbcqgfxamIirnGk/ROfiKIzANBgkqhkiG9w0BAQsFAAOCAgEAqKnw/ISQW6jp
bciKPUfP9wQg2YGie8Wudc+8NJCpTx6GvS758KDK0Z1P2vGRqt5x5m/JOx69vVVh
4kmomhKXwhHOu2tMkupxPDBAgwClAV8gzMPjLdpkb2Qc+nQ2zcJ5GUR1zHYtyQFf
+La6luFjUVf4msNCrqzmZyaOVwdavFpVF/67kR/tYRoNf5Gz50Oc3DgZTq/1RA24
m970D/kclr7swYu7RDILprhfQXU7+3WQLcHKW/HshymQnbE+6RrPo1NTbdMK30Gl
og+NMmc7RRdOkYf2qe61ZTud2uWvBSQJeSvCz17qVRC7SnXwk3KlyYJT1ybJLr59
W3kk7lwgbyLwAz5cahNrUo5m3Ry3rficrHq9YNBRkPOtAOnkISHypYGzeC8DL+p9
BonNo4PMHSdK1QMneDmW9PCQUWZ/qYBbDppwk/NIpBYnja8d49FO2bCpcI3FzirG
6evPELrlV1YzcsKMCAg3NdTQO4Fe84GppbvEhqgJIh+gokE5T4ql9Wpfs4UctBFG
of2LFGFH9roMBqvhRGAJBrnx6+Ka0TknJj9/uIkP/7T7SDh0ksEzJvD6/6RmiP4z
hxF4uHCff6CHbTFSZ+E2YIYSI8pe0Z8mvjBaf/JjNMWjqA/566FbacRez+H6YNd2
eRHViAkrGPoclFqU9pN7FcjDEQ0/3hE=
-----END CERTIFICATE-----
